target datalayout = "e-m:e-p270:32:32-p271:32:32-p272:64:64-i64:64-i128:128-f80:128-n8:16:32:64-S128"
target triple = "x86_64-pc-linux-gnu"

%struct._packet_info = type { ptr, ptr, i32, i32, %struct.nstime_t, %struct.nstime_t, %struct.nstime_t, i8, ptr, ptr, ptr, ptr, %struct._address, %struct._address, %struct._address, %struct._address, %struct._address, %struct._address, i32, ptr, i8, [3 x i8], %struct.anon, i32, i32, i32, i32, ptr, i8, ptr, ptr, i16, i16, i32, i32, i16, i32, i32, ptr, ptr, ptr, i8, i8, i16, i16, i16, i32, i16, i16, ptr, ptr, ptr, ptr, ptr, i32, i32 }
%struct.nstime_t = type { i64, i32 }
%struct._address = type { i32, i32, ptr, ptr }
%struct.anon = type { i8, [3 x i8] }

@bt_tracker_handle = internal global ptr null, align 8

; Function Attrs: null_pointer_is_valid sspstrong uwtable
define internal zeroext i1 @dissect_bt_tracker_heur(ptr noundef %0, ptr noundef %1, ptr noundef %2, ptr noundef %3) #0 {
  %5 = alloca i1, align 1
  %6 = alloca ptr, align 8
  %7 = alloca ptr, align 8
  %8 = alloca ptr, align 8
  %9 = alloca ptr, align 8
  %10 = alloca ptr, align 8
  %11 = alloca i32, align 4
  store ptr %0, ptr %6, align 8
  store ptr %1, ptr %7, align 8
  store ptr %2, ptr %8, align 8
  store ptr %3, ptr %9, align 8
  call void @llvm.lifetime.start.p0(i64 8, ptr %10) #5
  %12 = load ptr, ptr %6, align 8
  %13 = call i32 @tvb_captured_length_remaining(ptr noundef %12, i32 noundef 0)
  %14 = icmp slt i32 %13, 16
  br i1 %14, label %15, label %16

15:                                               ; preds = %4
  store i1 false, ptr %5, align 1
  store i32 1, ptr %11, align 4
  br label %39

16:                                               ; preds = %4
  %17 = load ptr, ptr %6, align 8
  %18 = call i64 @tvb_get_ntoh64(ptr noundef %17, i32 noundef 0)
  %19 = icmp ne i64 %18, 4497486125440
  br i1 %19, label %20, label %21

20:                                               ; preds = %16
  store i1 false, ptr %5, align 1
  store i32 1, ptr %11, align 4
  br label %39

21:                                               ; preds = %16
  %22 = load ptr, ptr %6, align 8
  %23 = call i32 @tvb_get_ntohl(ptr noundef %22, i32 noundef 8)
  %24 = icmp ne i32 %23, 0
  br i1 %24, label %25, label %26

25:                                               ; preds = %21
  store i1 false, ptr %5, align 1
  store i32 1, ptr %11, align 4
  br label %39

26:                                               ; preds = %21
  %27 = load ptr, ptr %7, align 8
  %28 = call ptr @find_or_create_conversation(ptr noundef %27)
  store ptr %28, ptr %10, align 8
  %29 = load ptr, ptr %10, align 8
  %30 = load ptr, ptr %7, align 8
  %31 = getelementptr inbounds nuw %struct._packet_info, ptr %30, i32 0, i32 3
  %32 = load i32, ptr %31, align 4
  %33 = load ptr, ptr @bt_tracker_handle, align 8
  call void @conversation_set_dissector_from_frame_number(ptr noundef %29, i32 noundef %32, ptr noundef %33)
  %34 = load ptr, ptr %6, align 8
  %35 = load ptr, ptr %7, align 8
  %36 = load ptr, ptr %8, align 8
  %37 = load ptr, ptr %9, align 8
  %38 = call i32 @dissect_bt_tracker(ptr noundef %34, ptr noundef %35, ptr noundef %36, ptr noundef %37)
  store i1 true, ptr %5, align 1
  store i32 1, ptr %11, align 4
  br label %39

39:                                               ; preds = %26, %25, %20, %15
  call void @llvm.lifetime.end.p0(i64 8, ptr %10) #5
  %40 = load i1, ptr %5, align 1
  ret i1 %40
}