; Function Attrs: null_pointer_is_valid sspstrong uwtable
define internal noundef zeroext i1 @dissect_bt_tracker_heur(ptr noundef %0, ptr noundef %1, ptr noundef %2, ptr noundef readnone captures(none) %3) #0 {
  %5 = tail call i32 @tvb_captured_length_remaining(ptr noundef %0, i32 noundef 0)
  %6 = icmp slt i32 %5, 16
  br i1 %6, label %17, label %7

7:                                                ; preds = %4
  %8 = tail call i64 @tvb_get_ntoh64(ptr noundef %0, i32 noundef 0)
  %.not = icmp eq i64 %8, 4497486125440
  br i1 %.not, label %9, label %17

9:                                                ; preds = %7
  %10 = tail call i32 @tvb_get_ntohl(ptr noundef %0, i32 noundef 8)
  %.not11 = icmp eq i32 %10, 0
  br i1 %.not11, label %11, label %17

11:                                               ; preds = %9
  %12 = tail call ptr @find_or_create_conversation(ptr noundef %1)
  %13 = getelementptr inbounds nuw i8, ptr %1, i64 20
  %14 = load i32, ptr %13, align 4
  %15 = load ptr, ptr @bt_tracker_handle, align 8
  tail call void @conversation_set_dissector_from_frame_number(ptr noundef %12, i32 noundef %14, ptr noundef %15)
  %16 = tail call i32 @dissect_bt_tracker(ptr noundef %0, ptr noundef %1, ptr noundef %2, ptr poison)
  br label %17

17:                                               ; preds = %9, %7, %4, %11
  %.0 = phi i1 [ true, %11 ], [ false, %4 ], [ false, %7 ], [ false, %9 ]
  ret i1 %.0
}